target datalayout = "e-m:e-p270:32:32-p271:32:32-p272:64:64-i64:64-i128:128-f80:128-n8:16:32:64-S128"
target triple = "x86_64-unknown-linux-gnu"

%"class.grpc_core::RefCountedPtr.27" = type { ptr }
%"class.grpc_core::RefCount" = type { %"struct.std::atomic" }
%"struct.std::atomic" = type { %"struct.std::__atomic_base" }
%"struct.std::__atomic_base" = type { i64 }
%"class.grpc_core::ChannelArgs" = type { %"class.grpc_core::AVL" }
%"class.grpc_core::AVL" = type { %"class.grpc_core::RefCountedPtr" }
%"class.grpc_core::RefCountedPtr" = type { ptr }
%"class.std::optional" = type { %"struct.std::_Optional_base" }
%"struct.std::_Optional_base" = type { %"struct.std::_Optional_payload" }
%"struct.std::_Optional_payload" = type { %"struct.std::_Optional_payload.base", [7 x i8] }
%"struct.std::_Optional_payload.base" = type { %"struct.std::_Optional_payload_base.base" }
%"struct.std::_Optional_payload_base.base" = type <{ %"union.std::_Optional_payload_base<grpc_core::Resolver::Result>::_Storage", i8 }>
%"union.std::_Optional_payload_base<grpc_core::Resolver::Result>::_Storage" = type { %"struct.grpc_core::Resolver::Result" }
%"struct.grpc_core::Resolver::Result" = type { %"class.absl::lts_20230802::StatusOr", %"class.absl::lts_20230802::StatusOr.17", %"class.std::__cxx11::basic_string", %"class.grpc_core::ChannelArgs", %"class.std::function" }
%"class.absl::lts_20230802::StatusOr" = type { %"class.absl::lts_20230802::internal_statusor::StatusOrData" }
%"class.absl::lts_20230802::internal_statusor::StatusOrData" = type { %union.anon.10, %union.anon.11 }
%union.anon.10 = type { %"class.absl::lts_20230802::Status" }
%"class.absl::lts_20230802::Status" = type { i64 }
%union.anon.11 = type { %"class.std::vector.12" }
%"class.std::vector.12" = type { %"struct.std::_Vector_base.13" }
%"struct.std::_Vector_base.13" = type { %"struct.std::_Vector_base<grpc_core::EndpointAddresses, std::allocator<grpc_core::EndpointAddresses>>::_Vector_impl" }
%"struct.std::_Vector_base<grpc_core::EndpointAddresses, std::allocator<grpc_core::EndpointAddresses>>::_Vector_impl" = type { %"struct.std::_Vector_base<grpc_core::EndpointAddresses, std::allocator<grpc_core::EndpointAddresses>>::_Vector_impl_data" }
%"struct.std::_Vector_base<grpc_core::EndpointAddresses, std::allocator<grpc_core::EndpointAddresses>>::_Vector_impl_data" = type { ptr, ptr, ptr }
%"class.absl::lts_20230802::StatusOr.17" = type { %"class.absl::lts_20230802::internal_statusor::StatusOrData.18" }
%"class.absl::lts_20230802::internal_statusor::StatusOrData.18" = type { %union.anon.19, %union.anon.20 }
%union.anon.19 = type { %"class.absl::lts_20230802::Status" }
%union.anon.20 = type { %"class.grpc_core::RefCountedPtr.21" }
%"class.grpc_core::RefCountedPtr.21" = type { ptr }
%"class.std::__cxx11::basic_string" = type { %"struct.std::__cxx11::basic_string<char>::_Alloc_hider", i64, %union.anon }
%"struct.std::__cxx11::basic_string<char>::_Alloc_hider" = type { ptr }
%union.anon = type { i64, [8 x i8] }
%"class.std::function" = type { %"class.std::_Function_base", ptr }
%"class.std::_Function_base" = type { %"union.std::_Any_data", ptr }
%"union.std::_Any_data" = type { %"union.std::_Nocopy_types" }
%"union.std::_Nocopy_types" = type { { i64, i64 } }
%"class.absl::lts_20230802::MutexLock" = type { ptr }
%"class.grpc_core::FakeResolverResponseGenerator" = type <{ %"class.grpc_core::RefCounted", %"class.absl::lts_20230802::Mutex", ptr, %"class.grpc_core::RefCountedPtr.27", %"class.std::optional", %"class.absl::lts_20230802::Mutex", ptr, i8, [7 x i8] }>
%"class.grpc_core::RefCounted" = type { %"class.grpc_core::PolymorphicRefCount", %"class.grpc_core::RefCount" }
%"class.grpc_core::PolymorphicRefCount" = type { ptr }
%"class.absl::lts_20230802::Mutex" = type { %"struct.std::atomic" }
%"class.absl::lts_20230802::CondVar" = type { %"struct.std::atomic" }
%"class.absl::lts_20230802::Duration" = type { %"class.absl::lts_20230802::Duration::HiRep", i32 }
%"class.absl::lts_20230802::Duration::HiRep" = type { i32, i32 }

; Function Attrs: mustprogress nounwind uwtable
define linkonce_odr void @_ZNSt13__atomic_baseIlEC2El(ptr noundef nonnull align 8 dereferenceable(8) %this, i64 noundef %__i) unnamed_addr #5 comdat align 2 {
entry:
  %this.addr = alloca ptr, align 8
  %__i.addr = alloca i64, align 8
  store ptr %this, ptr %this.addr, align 8
  store i64 %__i, ptr %__i.addr, align 8
  %this1 = load ptr, ptr %this.addr, align 8
  %_M_i = getelementptr inbounds %"struct.std::__atomic_base", ptr %this1, i32 0, i32 0
  %0 = load i64, ptr %__i.addr, align 8
  store i64 %0, ptr %_M_i, align 8
  ret void
}

; Function Attrs: mustprogress nounwind uwtable
define linkonce_odr void @_ZNSt6atomicIlEC2El(ptr noundef nonnull align 8 dereferenceable(8) %this, i64 noundef %__i) unnamed_addr #5 comdat align 2 {
entry:
  %this.addr = alloca ptr, align 8
  %__i.addr = alloca i64, align 8
  store ptr %this, ptr %this.addr, align 8
  store i64 %__i, ptr %__i.addr, align 8
  %this1 = load ptr, ptr %this.addr, align 8
  %0 = load i64, ptr %__i.addr, align 8
  call void @_ZNSt13__atomic_baseIlEC2El(ptr noundef nonnull align 8 dereferenceable(8) %this1, i64 noundef %0) #3
  ret void
}

; Function Attrs: mustprogress nounwind uwtable
define linkonce_odr void @_ZN4absl12lts_202308029MutexLockD2Ev(ptr noundef nonnull align 8 dereferenceable(8) %this) unnamed_addr #5 comdat align 2 personality ptr @__gxx_personality_v0 {
entry:
  %this.addr = alloca ptr, align 8
  store ptr %this, ptr %this.addr, align 8
  %this1 = load ptr, ptr %this.addr, align 8
  %mu_ = getelementptr inbounds %"class.absl::lts_20230802::MutexLock", ptr %this1, i32 0, i32 0
  %0 = load ptr, ptr %mu_, align 8
  invoke void @_ZN4absl12lts_202308025Mutex6UnlockEv(ptr noundef nonnull align 8 dereferenceable(8) %0)
          to label %invoke.cont unwind label %terminate.lpad

invoke.cont:                                      ; preds = %entry
  ret void

terminate.lpad:                                   ; preds = %entry
  %1 = landingpad { ptr, i32 }
          catch ptr null
  %2 = extractvalue { ptr, i32 } %1, 0
  call void @__clang_call_terminate(ptr %2) #14
  unreachable
}

; Function Attrs: mustprogress nounwind uwtable
define linkonce_odr noundef zeroext i1 @_ZNK9grpc_core13RefCountedPtrINS_12FakeResolverEEneEDn(ptr noundef nonnull align 8 dereferenceable(8) %this, ptr %0) #5 comdat align 2 {
entry:
  %this.addr = alloca ptr, align 8
  %.addr = alloca ptr, align 8
  store ptr %this, ptr %this.addr, align 8
  store ptr %0, ptr %.addr, align 8
  %this1 = load ptr, ptr %this.addr, align 8
  %value_ = getelementptr inbounds %"class.grpc_core::RefCountedPtr.27", ptr %this1, i32 0, i32 0
  %1 = load ptr, ptr %value_, align 8
  %cmp = icmp ne ptr %1, null
  ret i1 %cmp
}

; Function Attrs: mustprogress nounwind uwtable
define linkonce_odr void @_ZN4absl12lts_202308027CondVarC2Ev(ptr noundef nonnull align 8 dereferenceable(8) %this) unnamed_addr #5 comdat align 2 {
entry:
  %this.addr = alloca ptr, align 8
  store ptr %this, ptr %this.addr, align 8
  %this1 = load ptr, ptr %this.addr, align 8
  %cv_ = getelementptr inbounds %"class.absl::lts_20230802::CondVar", ptr %this1, i32 0, i32 0
  call void @_ZNSt6atomicIlEC2El(ptr noundef nonnull align 8 dereferenceable(8) %cv_, i64 noundef 0) #3
  ret void
}

; Function Attrs: mustprogress nounwind uwtable
define linkonce_odr noundef zeroext i1 @_ZNK9grpc_core13RefCountedPtrINS_12FakeResolverEEeqEDn(ptr noundef nonnull align 8 dereferenceable(8) %this, ptr %0) #5 comdat align 2 {
entry:
  %this.addr = alloca ptr, align 8
  %.addr = alloca ptr, align 8
  store ptr %this, ptr %this.addr, align 8
  store ptr %0, ptr %.addr, align 8
  %this1 = load ptr, ptr %this.addr, align 8
  %value_ = getelementptr inbounds %"class.grpc_core::RefCountedPtr.27", ptr %this1, i32 0, i32 0
  %1 = load ptr, ptr %value_, align 8
  %cmp = icmp eq ptr %1, null
  ret i1 %cmp
}

; Function Attrs: mustprogress uwtable
define linkonce_odr void @_ZN4absl12lts_202308029MutexLockC2EPNS0_5MutexE(ptr noundef nonnull align 8 dereferenceable(8) %this, ptr noundef %mu) unnamed_addr #4 comdat align 2 {
entry:
  %this.addr = alloca ptr, align 8
  %mu.addr = alloca ptr, align 8
  store ptr %this, ptr %this.addr, align 8
  store ptr %mu, ptr %mu.addr, align 8
  %this1 = load ptr, ptr %this.addr, align 8
  %mu_ = getelementptr inbounds %"class.absl::lts_20230802::MutexLock", ptr %this1, i32 0, i32 0
  %0 = load ptr, ptr %mu.addr, align 8
  store ptr %0, ptr %mu_, align 8
  %mu_2 = getelementptr inbounds %"class.absl::lts_20230802::MutexLock", ptr %this1, i32 0, i32 0
  %1 = load ptr, ptr %mu_2, align 8
  call void @_ZN4absl12lts_202308025Mutex4LockEv(ptr noundef nonnull align 8 dereferenceable(8) %1)
  ret void
}

; Function Attrs: mustprogress uwtable
define noundef zeroext i1 @_ZN9grpc_core29FakeResolverResponseGenerator18WaitForResolverSetEN4absl12lts_202308028DurationE(ptr noundef nonnull align 8 dereferenceable(185) %this, i64 %timeout.coerce0, i32 %timeout.coerce1) #4 align 2 personality ptr @__gxx_personality_v0 {
entry:
  %timeout = alloca %"class.absl::lts_20230802::Duration", align 4
  %coerce = alloca { i64, i32 }, align 4
  %this.addr = alloca ptr, align 8
  %lock = alloca %"class.absl::lts_20230802::MutexLock", align 8
  %exn.slot = alloca ptr, align 8
  %ehselector.slot = alloca i32, align 4
  %condition = alloca %"class.absl::lts_20230802::CondVar", align 8
  %agg.tmp = alloca %"class.absl::lts_20230802::Duration", align 4
  %agg.tmp.coerce = alloca { i64, i32 }, align 4
  %0 = getelementptr inbounds { i64, i32 }, ptr %coerce, i32 0, i32 0
  store i64 %timeout.coerce0, ptr %0, align 4
  %1 = getelementptr inbounds { i64, i32 }, ptr %coerce, i32 0, i32 1
  store i32 %timeout.coerce1, ptr %1, align 4
  call void @llvm.memcpy.p0.p0.i64(ptr align 4 %timeout, ptr align 4 %coerce, i64 12, i1 false)
  store ptr %this, ptr %this.addr, align 8
  %this1 = load ptr, ptr %this.addr, align 8
  %mu_ = getelementptr inbounds %"class.grpc_core::FakeResolverResponseGenerator", ptr %this1, i32 0, i32 1
  call void @_ZN4absl12lts_202308029MutexLockC2EPNS0_5MutexE(ptr noundef nonnull align 8 dereferenceable(8) %lock, ptr noundef %mu_)
  %resolver_ = getelementptr inbounds %"class.grpc_core::FakeResolverResponseGenerator", ptr %this1, i32 0, i32 3
  %call = invoke noundef zeroext i1 @_ZNK9grpc_core13RefCountedPtrINS_12FakeResolverEEeqEDn(ptr noundef nonnull align 8 dereferenceable(8) %resolver_, ptr null)
          to label %invoke.cont unwind label %lpad

invoke.cont:                                      ; preds = %entry
  br i1 %call, label %if.then, label %if.end

if.then:                                          ; preds = %invoke.cont
  invoke void @_ZN4absl12lts_202308027CondVarC2Ev(ptr noundef nonnull align 8 dereferenceable(8) %condition)
          to label %invoke.cont2 unwind label %lpad

invoke.cont2:                                     ; preds = %if.then
  %resolver_set_cv_ = getelementptr inbounds %"class.grpc_core::FakeResolverResponseGenerator", ptr %this1, i32 0, i32 2
  store ptr %condition, ptr %resolver_set_cv_, align 8
  %mu_3 = getelementptr inbounds %"class.grpc_core::FakeResolverResponseGenerator", ptr %this1, i32 0, i32 1
  call void @llvm.memcpy.p0.p0.i64(ptr align 4 %agg.tmp, ptr align 4 %timeout, i64 12, i1 false)
  call void @llvm.memcpy.p0.p0.i64(ptr align 4 %agg.tmp.coerce, ptr align 4 %agg.tmp, i64 12, i1 false)
  %2 = getelementptr inbounds { i64, i32 }, ptr %agg.tmp.coerce, i32 0, i32 0
  %3 = load i64, ptr %2, align 4
  %4 = getelementptr inbounds { i64, i32 }, ptr %agg.tmp.coerce, i32 0, i32 1
  %5 = load i32, ptr %4, align 4
  %call6 = invoke noundef zeroext i1 @_ZN4absl12lts_202308027CondVar15WaitWithTimeoutEPNS0_5MutexENS0_8DurationE(ptr noundef nonnull align 8 dereferenceable(8) %condition, ptr noundef %mu_3, i64 %3, i32 %5)
          to label %invoke.cont5 unwind label %lpad4

invoke.cont5:                                     ; preds = %invoke.cont2
  %resolver_set_cv_7 = getelementptr inbounds %"class.grpc_core::FakeResolverResponseGenerator", ptr %this1, i32 0, i32 2
  store ptr null, ptr %resolver_set_cv_7, align 8
  call void @_ZN4absl12lts_202308027CondVarD1Ev(ptr noundef nonnull align 8 dereferenceable(8) %condition) #3
  br label %if.end

lpad:                                             ; preds = %if.end, %if.then, %entry
  %6 = landingpad { ptr, i32 }
          cleanup
  %7 = extractvalue { ptr, i32 } %6, 0
  store ptr %7, ptr %exn.slot, align 8
  %8 = extractvalue { ptr, i32 } %6, 1
  store i32 %8, ptr %ehselector.slot, align 4
  br label %ehcleanup

lpad4:                                            ; preds = %invoke.cont2
  %9 = landingpad { ptr, i32 }
          cleanup
  %10 = extractvalue { ptr, i32 } %9, 0
  store ptr %10, ptr %exn.slot, align 8
  %11 = extractvalue { ptr, i32 } %9, 1
  store i32 %11, ptr %ehselector.slot, align 4
  call void @_ZN4absl12lts_202308027CondVarD1Ev(ptr noundef nonnull align 8 dereferenceable(8) %condition) #3
  br label %ehcleanup

if.end:                                           ; preds = %invoke.cont5, %invoke.cont
  %resolver_8 = getelementptr inbounds %"class.grpc_core::FakeResolverResponseGenerator", ptr %this1, i32 0, i32 3
  %call10 = invoke noundef zeroext i1 @_ZNK9grpc_core13RefCountedPtrINS_12FakeResolverEEneEDn(ptr noundef nonnull align 8 dereferenceable(8) %resolver_8, ptr null)
          to label %invoke.cont9 unwind label %lpad

invoke.cont9:                                     ; preds = %if.end
  call void @_ZN4absl12lts_202308029MutexLockD2Ev(ptr noundef nonnull align 8 dereferenceable(8) %lock) #3
  ret i1 %call10

ehcleanup:                                        ; preds = %lpad4, %lpad
  call void @_ZN4absl12lts_202308029MutexLockD2Ev(ptr noundef nonnull align 8 dereferenceable(8) %lock) #3
  br label %eh.resume

eh.resume:                                        ; preds = %ehcleanup
  %exn = load ptr, ptr %exn.slot, align 8
  %sel = load i32, ptr %ehselector.slot, align 4
  %lpad.val = insertvalue { ptr, i32 } poison, ptr %exn, 0
  %lpad.val11 = insertvalue { ptr, i32 } %lpad.val, i32 %sel, 1
  resume { ptr, i32 } %lpad.val11
}