; Function Attrs: mustprogress uwtable
define noundef zeroext i1 @_ZN9grpc_core29FakeResolverResponseGenerator18WaitForResolverSetEN4absl12lts_202308028DurationE(ptr noundef nonnull align 8 dereferenceable(185) %this, i64 %timeout.coerce0, i32 %timeout.coerce1) local_unnamed_addr #3 align 2 personality ptr @__gxx_personality_v0 {
entry:
  %condition = alloca %"class.absl::lts_20230802::CondVar", align 8
  %mu_ = getelementptr inbounds i8, ptr %this, i64 16
  tail call void @_ZN4absl12lts_202308025Mutex4LockEv(ptr noundef nonnull align 8 dereferenceable(8) %mu_)
  %resolver_ = getelementptr inbounds i8, ptr %this, i64 32
  %0 = load ptr, ptr %resolver_, align 8
  %cmp.i = icmp eq ptr %0, null
  br i1 %cmp.i, label %if.then, label %if.end

if.then:                                          ; preds = %entry
  store i64 0, ptr %condition, align 8
  %resolver_set_cv_ = getelementptr inbounds i8, ptr %this, i64 24
  store ptr %condition, ptr %resolver_set_cv_, align 8
  %call6 = invoke noundef zeroext i1 @_ZN4absl12lts_202308027CondVar15WaitWithTimeoutEPNS0_5MutexENS0_8DurationE(ptr noundef nonnull align 8 dereferenceable(8) %condition, ptr noundef nonnull %mu_, i64 %timeout.coerce0, i32 %timeout.coerce1)
          to label %invoke.cont5 unwind label %lpad4

invoke.cont5:                                     ; preds = %if.then
  store ptr null, ptr %resolver_set_cv_, align 8
  call void @_ZN4absl12lts_202308027CondVarD1Ev(ptr noundef nonnull align 8 dereferenceable(8) %condition) #17
  %.pre = load ptr, ptr %resolver_, align 8
  %1 = icmp ne ptr %.pre, null
  br label %if.end

lpad4:                                            ; preds = %if.then
  %2 = landingpad { ptr, i32 }
          cleanup
  call void @_ZN4absl12lts_202308027CondVarD1Ev(ptr noundef nonnull align 8 dereferenceable(8) %condition) #17
  invoke void @_ZN4absl12lts_202308025Mutex6UnlockEv(ptr noundef nonnull align 8 dereferenceable(8) %mu_)
          to label %_ZN4absl12lts_202308029MutexLockD2Ev.exit unwind label %terminate.lpad.i

terminate.lpad.i:                                 ; preds = %lpad4
  %3 = landingpad { ptr, i32 }
          catch ptr null
  %4 = extractvalue { ptr, i32 } %3, 0
  call void @__clang_call_terminate(ptr %4) #18
  unreachable

_ZN4absl12lts_202308029MutexLockD2Ev.exit:        ; preds = %lpad4
  resume { ptr, i32 } %2

if.end:                                           ; preds = %invoke.cont5, %entry
  %cmp.i1 = phi i1 [ %1, %invoke.cont5 ], [ true, %entry ]
  invoke void @_ZN4absl12lts_202308025Mutex6UnlockEv(ptr noundef nonnull align 8 dereferenceable(8) %mu_)
          to label %_ZN4absl12lts_202308029MutexLockD2Ev.exit3 unwind label %terminate.lpad.i2

terminate.lpad.i2:                                ; preds = %if.end
  %5 = landingpad { ptr, i32 }
          catch ptr null
  %6 = extractvalue { ptr, i32 } %5, 0
  call void @__clang_call_terminate(ptr %6) #18
  unreachable

_ZN4absl12lts_202308029MutexLockD2Ev.exit3:       ; preds = %if.end
  ret i1 %cmp.i1
}